Certificate:
    Data:
        Version: 3 (0x2)
        Serial Number:
            39:bf:05:cd:3f:78:3e:81:39:70:73:7c:7f:2b:9b:61:44:76:9f:5c
        Signature Algorithm: sha256WithRSAEncryption
        Issuer: C=CN, ST=Some-State, O=Internet Widgits Pty Ltd, CN=ROOTCA
        Validity
            Not Before: Jun 13 02:08:58 2023 GMT
            Not After : Jun 12 02:08:58 2026 GMT
        Subject: C=CN, ST=Some-State, O=Internet Widgits Pty Ltd, CN=ROOTCA
        Subject Public Key Info:
            Public Key Algorithm: rsaEncryption
                RSA Public-Key: (2048 bit)
                Modulus:
                    00:c4:f0:ed:34:6a:08:75:6d:8e:52:2b:1f:1f:80:
                    9a:5e:43:08:3f:0f:ea:2d:ea:d7:0d:ed:56:72:23:
                    6c:91:68:bb:12:c5:38:b5:d3:3f:81:fb:b3:a6:7e:
                    96:51:cd:7a:ef:46:c5:da:49:a1:eb:e0:3e:1d:ea:
                    20:37:72:76:e5:54:6c:5c:94:74:8a:86:c2:5c:24:
                    fa:4a:0a:c8:60:39:cd:e1:9a:2f:e8:84:ab:9e:d7:
                    5d:2a:e7:e3:2d:95:69:9a:f1:e3:92:7f:ee:6c:20:
                    81:29:7b:61:8f:3c:2f:8b:a1:64:db:05:b3:91:70:
                    35:96:d3:bf:42:16:b4:9a:c3:4d:0b:eb:a9:ac:87:
                    dc:55:a1:46:11:c4:7c:60:34:c1:64:2b:a5:d9:13:
                    16:bc:65:a4:f8:c1:93:fd:b1:c7:79:74:bf:3c:87:
                    64:46:41:8b:5c:22:4a:83:bb:66:35:08:e3:b1:d0:
                    81:2c:94:d3:ea:5e:d0:df:ca:b9:3c:f3:2e:53:b3:
                    78:72:ec:3c:a9:e5:91:67:5e:7b:0a:29:3f:8f:03:
                    5d:be:d2:07:7a:1a:c8:b3:41:aa:d4:de:e1:23:30:
                    85:9c:dc:dd:20:41:9e:46:e6:0c:43:43:f9:be:57:
                    6d:94:c5:1a:6b:f0:f9:d1:52:8c:8a:f6:4c:80:29:
                    4a:fb
                Exponent: 65537 (0x10001)
        X509v3 extensions:
            X509v3 Subject Key Identifier: 
                2C:9C:DC:57:BF:18:37:D0:42:22:48:1B:90:49:CC:29:9D:FF:EA:7D
            X509v3 Authority Key Identifier: 
                keyid:2C:9C:DC:57:BF:18:37:D0:42:22:48:1B:90:49:CC:29:9D:FF:EA:7D

            X509v3 Basic Constraints: critical
                CA:TRUE
    Signature Algorithm: sha256WithRSAEncryption
         1f:37:77:2b:7c:e0:ce:21:7c:d4:a8:39:ea:e0:80:37:70:e3:
         d8:ed:31:46:5f:76:15:45:8a:8d:ad:98:5c:43:ea:8a:ad:83:
         21:0e:40:69:4a:3f:dc:a7:75:2a:fc:0e:3d:26:46:ee:dd:fc:
         25:0b:5c:21:25:3f:b2:4b:55:cb:03:7a:91:a9:4a:8e:62:99:
         d6:0d:06:0b:a6:78:29:4e:f7:a2:22:95:77:10:b3:0a:99:34:
         37:6b:10:4c:34:1a:c5:05:cb:5d:b5:69:5e:97:de:40:e6:79:
         7f:fd:4c:a6:27:fb:91:de:1f:d2:14:29:3a:f3:e1:9b:13:bc:
         c7:55:7f:cd:64:01:8f:7c:8e:af:b9:e1:1e:9c:02:e4:fc:f5:
         d2:64:c0:46:19:34:54:a8:e0:4c:d8:6c:41:2c:70:4e:3f:2c:
         f7:2d:e6:cd:f8:70:3e:3f:c3:f7:f1:d2:b8:52:bb:21:43:f0:
         73:91:9c:68:a2:2d:cf:dd:67:47:8c:a1:86:90:79:65:aa:c6:
         3b:89:20:de:4b:b9:bf:d9:d3:71:55:84:ce:0c:85:69:b8:0d:
         54:78:a8:df:17:c8:b3:9e:19:f0:3c:98:fc:4d:1a:ac:ca:14:
         c2:06:01:84:37:89:7e:53:39:83:d2:e7:e5:3f:9f:d4:b0:ca:
         64:a9:64:69
-----BEGIN CERTIFICATE-----
MIIDjTCCAnWgAwIBAgIUOb8FzT94PoE5cHN8fyubYUR2n1wwDQYJKoZIhvcNAQEL
BQAwVjELMAkGA1UEBhMCQ04xEzARBgNVBAgMClNvbWUtU3RhdGUxITAfBgNVBAoM
GEludGVybmV0IFdpZGdpdHMgUHR5IEx0ZDEPMA0GA1UEAwwGUk9PVENBMB4XDTIz
MDYxMzAyMDg1OFoXDTI2MDYxMjAyMDg1OFowVjELMAkGA1UEBhMCQ04xEzARBgNV
BAgMClNvbWUtU3RhdGUxITAfBgNVBAoMGEludGVybmV0IFdpZGdpdHMgUHR5IEx0
ZDEPMA0GA1UEAwwGUk9PVENBMIIBIjANBgkqhkiG9w0BAQEFAAOCAQ8AMIIBCgKC
AQEAxPDtNGoIdW2OUisfH4CaXkMIPw/qLerXDe1WciNskWi7EsU4tdM/gfuzpn6W
Uc1670bF2kmh6+A+HeogN3J25VRsXJR0iobCXCT6SgrIYDnN4Zov6ISrntddKufj
LZVpmvHjkn/ubCCBKXthjzwvi6Fk2wWzkXA1ltO/Qha0msNNC+uprIfcVaFGEcR8
YDTBZCul2RMWvGWk+MGT/bHHeXS/PIdkRkGLXCJKg7tmNQjjsdCBLJTT6l7Q38q5
PPMuU7N4cuw8qeWRZ157Cik/jwNdvtIHehrIs0Gq1N7hIzCFnNzdIEGeRuYMQ0P5
vldtlMUaa/D50VKMivZMgClK+wIDAQABo1MwUTAdBgNVHQ4EFgQULJzcV78YN9BC
IkgbkEnMKZ3/6n0wHwYDVR0jBBgwFoAULJzcV78YN9BCIkgbkEnMKZ3/6n0wDwYD
VR0TAQH/BAUwAwEB/zANBgkqhkiG9w0BAQsFAAOCAQEAHzd3K3zgziF81Kg56uCA
N3Dj2O0xRl92FUWKja2YXEPqiq2DIQ5AaUo/3Kd1KvwOPSZG7t38JQtcISU/sktV
ywN6kalKjmKZ1g0GC6Z4KU73oiKVdxCzCpk0N2sQTDQaxQXLXbVpXpfeQOZ5f/1M
pif7kd4f0hQpOvPhmxO8x1V/zWQBj3yOr7nhHpwC5Pz10mTARhk0VKjgTNhsQSxw
Tj8s9y3mzfhwPj/D9/HSuFK7IUPwc5GcaKItz91nR4yhhpB5ZarGO4kg3ku5v9nT
cVWEzgyFabgNVHio3xfIs54Z8DyY/E0arMoUwgYBhDeJflM5g9Ln5T+f1LDKZKlk
aQ==
-----END CERTIFICATE-----
